target datalayout = "e-m:e-p270:32:32-p271:32:32-p272:64:64-i64:64-i128:128-f80:128-n8:16:32:64-S128"
target triple = "x86_64-pc-linux-gnu"

%struct._address = type { i32, i32, ptr, ptr }
%struct._packet_info = type { ptr, ptr, i32, i32, %struct.nstime_t, %struct.nstime_t, %struct.nstime_t, i8, ptr, ptr, ptr, ptr, %struct._address, %struct._address, %struct._address, %struct._address, %struct._address, %struct._address, i32, ptr, i8, [3 x i8], %struct.anon, i32, i32, i32, i32, ptr, i8, ptr, ptr, i16, i16, i32, i32, i16, i32, i32, ptr, ptr, ptr, i8, i8, i16, i16, i16, i32, i16, i16, ptr, ptr, ptr, ptr, ptr, i32, i32 }
%struct.nstime_t = type { i64, i32 }
%struct.anon = type { i8, [3 x i8] }
%struct.reassembly_table = type { ptr, ptr, ptr, ptr, ptr }
%struct._fragment_head = type { ptr, ptr, i32, i32, i32, i32, i32, i32, i32, i8, i32, ptr, ptr }
%struct._fragment_item = type { ptr, i32, i32, i32, i32, ptr }
%struct._frame_data = type <{ i32, i32, i32, i32, i32, [4 x i8], i64, ptr, ptr, ptr, i8, i16, [5 x i8], %struct.nstime_t, %struct.nstime_t, i32, i32 }>

@.str = private unnamed_addr constant [29 x i8] c"%s:%u: failed assertion \22%s\22\00", align 1
@.str.1 = private unnamed_addr constant [18 x i8] c"epan/reassemble.c\00", align 1
@.str.27 = private unnamed_addr constant [44 x i8] c"tvb_bytes_exist(tvb, offset, frag_data_len)\00", align 1
@.str.28 = private unnamed_addr constant [34 x i8] c"Frame already added in first pass\00", align 1
@.str.29 = private unnamed_addr constant [49 x i8] c"New fragment overlaps old data (retransmission?)\00", align 1
@.str.30 = private unnamed_addr constant [34 x i8] c"New fragment past old data limits\00", align 1

; Function Attrs: alwaysinline nounwind
define internal ptr @memset.inline(ptr %0, i32 %1, i64 %2) #13 {
  %4 = alloca ptr, align 8
  %5 = alloca i32, align 4
  %6 = alloca i64, align 8
  store ptr %0, ptr %4, align 8
  store i32 %1, ptr %5, align 4
  store i64 %2, ptr %6, align 8
  %7 = load ptr, ptr %4, align 8
  %8 = load i32, ptr %5, align 4
  %9 = load i64, ptr %6, align 8
  %10 = load ptr, ptr %4, align 8
  %11 = call i64 @llvm.objectsize.i64.p0(ptr %10, i1 false, i1 true, i1 true)
  %12 = call ptr @__memset_chk(ptr noundef %7, i32 noundef %8, i64 noundef %9, i64 noundef %11) #16
  ret ptr %12
}

; Function Attrs: null_pointer_is_valid sspstrong uwtable
define internal ptr @insert_fd_head(ptr noundef %0, ptr noundef %1, ptr noundef %2, i32 noundef %3, ptr noundef %4) #1 {
  %6 = alloca ptr, align 8
  %7 = alloca ptr, align 8
  %8 = alloca ptr, align 8
  %9 = alloca i32, align 4
  %10 = alloca ptr, align 8
  %11 = alloca ptr, align 8
  store ptr %0, ptr %6, align 8
  store ptr %1, ptr %7, align 8
  store ptr %2, ptr %8, align 8
  store i32 %3, ptr %9, align 4
  store ptr %4, ptr %10, align 8
  call void @llvm.lifetime.start.p0(i64 8, ptr %11) #16
  %12 = load ptr, ptr %6, align 8
  %13 = getelementptr inbounds nuw %struct.reassembly_table, ptr %12, i32 0, i32 3
  %14 = load ptr, ptr %13, align 8
  %15 = load ptr, ptr %8, align 8
  %16 = load i32, ptr %9, align 4
  %17 = load ptr, ptr %10, align 8
  %18 = call ptr %14(ptr noundef %15, i32 noundef %16, ptr noundef %17)
  store ptr %18, ptr %11, align 8
  %19 = load ptr, ptr %6, align 8
  %20 = getelementptr inbounds nuw %struct.reassembly_table, ptr %19, i32 0, i32 0
  %21 = load ptr, ptr %20, align 8
  %22 = load ptr, ptr %11, align 8
  %23 = load ptr, ptr %7, align 8
  %24 = call i32 @g_hash_table_insert(ptr noundef %21, ptr noundef %22, ptr noundef %23)
  %25 = load ptr, ptr %11, align 8
  call void @llvm.lifetime.end.p0(i64 8, ptr %11) #16
  ret ptr %25
}

; Function Attrs: null_pointer_is_valid sspstrong uwtable
define internal ptr @new_head(i32 noundef %0) #1 {
  %2 = alloca i32, align 4
  %3 = alloca ptr, align 8
  %4 = alloca i64, align 8
  %5 = alloca ptr, align 8
  %6 = alloca ptr, align 8
  store i32 %0, ptr %2, align 4
  call void @llvm.lifetime.start.p0(i64 8, ptr %3) #16
  call void @llvm.lifetime.start.p0(i64 8, ptr %4) #16
  store i64 72, ptr %4, align 8
  call void @llvm.lifetime.start.p0(i64 8, ptr %5) #16
  %7 = load i64, ptr %4, align 8
  %8 = call noalias ptr @g_slice_alloc(i64 noundef %7) #17
  store ptr %8, ptr %5, align 8
  %9 = load ptr, ptr %5, align 8
  %10 = load i64, ptr %4, align 8
  %11 = call ptr @memset.inline(ptr noundef %9, i32 noundef 0, i64 noundef %10) #16
  %12 = load ptr, ptr %5, align 8
  store ptr %12, ptr %6, align 8
  call void @llvm.lifetime.end.p0(i64 8, ptr %5) #16
  call void @llvm.lifetime.end.p0(i64 8, ptr %4) #16
  %13 = load ptr, ptr %6, align 8
  store ptr %13, ptr %3, align 8
  %14 = load i32, ptr %2, align 4
  %15 = load ptr, ptr %3, align 8
  %16 = getelementptr inbounds nuw %struct._fragment_head, ptr %15, i32 0, i32 10
  store i32 %14, ptr %16, align 8
  %17 = load ptr, ptr %3, align 8
  call void @llvm.lifetime.end.p0(i64 8, ptr %3) #16
  ret ptr %17
}

; Function Attrs: null_pointer_is_valid sspstrong uwtable
define internal ptr @lookup_fd_head(ptr noundef %0, ptr noundef %1, i32 noundef %2, ptr noundef %3, ptr noundef %4) #1 {
  %6 = alloca ptr, align 8
  %7 = alloca ptr, align 8
  %8 = alloca i32, align 4
  %9 = alloca ptr, align 8
  %10 = alloca ptr, align 8
  %11 = alloca ptr, align 8
  %12 = alloca ptr, align 8
  store ptr %0, ptr %6, align 8
  store ptr %1, ptr %7, align 8
  store i32 %2, ptr %8, align 4
  store ptr %3, ptr %9, align 8
  store ptr %4, ptr %10, align 8
  call void @llvm.lifetime.start.p0(i64 8, ptr %11) #16
  call void @llvm.lifetime.start.p0(i64 8, ptr %12) #16
  %13 = load ptr, ptr %6, align 8
  %14 = getelementptr inbounds nuw %struct.reassembly_table, ptr %13, i32 0, i32 2
  %15 = load ptr, ptr %14, align 8
  %16 = load ptr, ptr %7, align 8
  %17 = load i32, ptr %8, align 4
  %18 = load ptr, ptr %9, align 8
  %19 = call ptr %15(ptr noundef %16, i32 noundef %17, ptr noundef %18)
  store ptr %19, ptr %11, align 8
  %20 = load ptr, ptr %6, align 8
  %21 = getelementptr inbounds nuw %struct.reassembly_table, ptr %20, i32 0, i32 0
  %22 = load ptr, ptr %21, align 8
  %23 = load ptr, ptr %11, align 8
  %24 = load ptr, ptr %10, align 8
  %25 = call i32 @g_hash_table_lookup_extended(ptr noundef %22, ptr noundef %23, ptr noundef %24, ptr noundef %12)
  %26 = icmp ne i32 %25, 0
  br i1 %26, label %28, label %27

27:                                               ; preds = %5
  store ptr null, ptr %12, align 8
  br label %28

28:                                               ; preds = %27, %5
  %29 = load ptr, ptr %6, align 8
  %30 = getelementptr inbounds nuw %struct.reassembly_table, ptr %29, i32 0, i32 4
  %31 = load ptr, ptr %30, align 8
  %32 = load ptr, ptr %11, align 8
  call void %31(ptr noundef %32)
  %33 = load ptr, ptr %12, align 8
  call void @llvm.lifetime.end.p0(i64 8, ptr %12) #16
  call void @llvm.lifetime.end.p0(i64 8, ptr %11) #16
  ret ptr %33
}

; Function Attrs: null_pointer_is_valid sspstrong uwtable
define internal ptr @fragment_add_common(ptr noundef %0, ptr noundef %1, i32 noundef %2, ptr noundef %3, i32 noundef %4, ptr noundef %5, i32 noundef %6, i32 noundef %7, i1 noundef zeroext %8, i1 noundef zeroext %9, i32 noundef %10) #1 {
  %12 = alloca ptr, align 8
  %13 = alloca ptr, align 8
  %14 = alloca ptr, align 8
  %15 = alloca i32, align 4
  %16 = alloca ptr, align 8
  %17 = alloca i32, align 4
  %18 = alloca ptr, align 8
  %19 = alloca i32, align 4
  %20 = alloca i32, align 4
  %21 = alloca i8, align 1
  %22 = alloca i8, align 1
  %23 = alloca i32, align 4
  %24 = alloca ptr, align 8
  %25 = alloca ptr, align 8
  %26 = alloca i8, align 1
  %27 = alloca i32, align 4
  store ptr %0, ptr %13, align 8
  store ptr %1, ptr %14, align 8
  store i32 %2, ptr %15, align 4
  store ptr %3, ptr %16, align 8
  store i32 %4, ptr %17, align 4
  store ptr %5, ptr %18, align 8
  store i32 %6, ptr %19, align 4
  store i32 %7, ptr %20, align 4
  %28 = zext i1 %8 to i8
  store i8 %28, ptr %21, align 1
  %29 = zext i1 %9 to i8
  store i8 %29, ptr %22, align 1
  store i32 %10, ptr %23, align 4
  call void @llvm.lifetime.start.p0(i64 8, ptr %24) #16
  call void @llvm.lifetime.start.p0(i64 8, ptr %25) #16
  call void @llvm.lifetime.start.p0(i64 1, ptr %26) #16
  %30 = load ptr, ptr %14, align 8
  %31 = load i32, ptr %15, align 4
  %32 = load i32, ptr %20, align 4
  %33 = call zeroext i1 @tvb_bytes_exist(ptr noundef %30, i32 noundef %31, i32 noundef %32)
  br i1 %33, label %34, label %35

34:                                               ; preds = %11
  br label %37

35:                                               ; preds = %11
  call void (ptr, ...) @proto_report_dissector_bug(ptr noundef @.str, ptr noundef @.str.1, i32 noundef 1542, ptr noundef @.str.27) #18
  unreachable

36:                                               ; No predecessors!
  br label %37

37:                                               ; preds = %36, %34
  %38 = load ptr, ptr %13, align 8
  %39 = load ptr, ptr %16, align 8
  %40 = load i32, ptr %17, align 4
  %41 = load ptr, ptr %18, align 8
  %42 = call ptr @lookup_fd_head(ptr noundef %38, ptr noundef %39, i32 noundef %40, ptr noundef %41, ptr noundef null)
  store ptr %42, ptr %24, align 8
  %43 = load ptr, ptr %16, align 8
  %44 = getelementptr inbounds nuw %struct._packet_info, ptr %43, i32 0, i32 8
  %45 = load ptr, ptr %44, align 8
  %46 = getelementptr inbounds nuw %struct._frame_data, ptr %45, i32 0, i32 11
  %47 = load i16, ptr %46, align 1
  %48 = lshr i16 %47, 3
  %49 = and i16 %48, 1
  %50 = zext i16 %49 to i32
  %51 = icmp ne i32 %50, 0
  br i1 %51, label %103, label %52

52:                                               ; preds = %37
  %53 = load i8, ptr %22, align 1, !range !13, !noundef !14
  %54 = trunc i8 %53 to i1
  br i1 %54, label %55, label %102

55:                                               ; preds = %52
  %56 = load ptr, ptr %24, align 8
  %57 = icmp ne ptr %56, null
  br i1 %57, label %58, label %102

58:                                               ; preds = %55
  %59 = load i32, ptr %23, align 4
  %60 = load ptr, ptr %24, align 8
  %61 = getelementptr inbounds nuw %struct._fragment_head, ptr %60, i32 0, i32 4
  %62 = load i32, ptr %61, align 8
  %63 = icmp ule i32 %59, %62
  br i1 %63, label %64, label %101

64:                                               ; preds = %58
  store i8 0, ptr %26, align 1
  %65 = load ptr, ptr %24, align 8
  %66 = getelementptr inbounds nuw %struct._fragment_head, ptr %65, i32 0, i32 0
  %67 = load ptr, ptr %66, align 8
  store ptr %67, ptr %25, align 8
  br label %68

68:                                               ; preds = %85, %64
  %69 = load ptr, ptr %25, align 8
  %70 = icmp ne ptr %69, null
  br i1 %70, label %71, label %89

71:                                               ; preds = %68
  %72 = load i32, ptr %23, align 4
  %73 = load ptr, ptr %25, align 8
  %74 = getelementptr inbounds nuw %struct._fragment_item, ptr %73, i32 0, i32 1
  %75 = load i32, ptr %74, align 8
  %76 = icmp eq i32 %72, %75
  br i1 %76, label %77, label %84

77:                                               ; preds = %71
  %78 = load i32, ptr %19, align 4
  %79 = load ptr, ptr %25, align 8
  %80 = getelementptr inbounds nuw %struct._fragment_item, ptr %79, i32 0, i32 2
  %81 = load i32, ptr %80, align 4
  %82 = icmp eq i32 %78, %81
  br i1 %82, label %83, label %84

83:                                               ; preds = %77
  store i8 1, ptr %26, align 1
  br label %89

84:                                               ; preds = %77, %71
  br label %85

85:                                               ; preds = %84
  %86 = load ptr, ptr %25, align 8
  %87 = getelementptr inbounds nuw %struct._fragment_item, ptr %86, i32 0, i32 0
  %88 = load ptr, ptr %87, align 8
  store ptr %88, ptr %25, align 8
  br label %68, !llvm.loop !15

89:                                               ; preds = %83, %68
  %90 = load i8, ptr %26, align 1, !range !13, !noundef !14
  %91 = trunc i8 %90 to i1
  br i1 %91, label %92, label %100

92:                                               ; preds = %89
  %93 = load ptr, ptr %24, align 8
  %94 = getelementptr inbounds nuw %struct._fragment_head, ptr %93, i32 0, i32 10
  %95 = load i32, ptr %94, align 8
  %96 = and i32 %95, 1
  %97 = icmp ne i32 %96, 0
  br i1 %97, label %98, label %99

98:                                               ; preds = %92
  call void @except_throw(i64 noundef 1, i64 noundef 9, ptr noundef @.str.28) #18
  unreachable

99:                                               ; preds = %92
  store ptr null, ptr %12, align 8
  store i32 1, ptr %27, align 4
  br label %172

100:                                              ; preds = %89
  br label %101

101:                                              ; preds = %100, %58
  br label %102

102:                                              ; preds = %101, %55, %52
  br label %147

103:                                              ; preds = %37
  %104 = load ptr, ptr %24, align 8
  %105 = icmp ne ptr %104, null
  br i1 %105, label %106, label %146

106:                                              ; preds = %103
  %107 = load ptr, ptr %24, align 8
  %108 = getelementptr inbounds nuw %struct._fragment_head, ptr %107, i32 0, i32 10
  %109 = load i32, ptr %108, align 8
  %110 = and i32 %109, 1
  %111 = icmp ne i32 %110, 0
  br i1 %111, label %112, label %146

112:                                              ; preds = %106
  %113 = load ptr, ptr %24, align 8
  %114 = getelementptr inbounds nuw %struct._fragment_head, ptr %113, i32 0, i32 12
  %115 = load ptr, ptr %114, align 8
  %116 = icmp ne ptr %115, null
  br i1 %116, label %117, label %121

117:                                              ; preds = %112
  %118 = load ptr, ptr %24, align 8
  %119 = getelementptr inbounds nuw %struct._fragment_head, ptr %118, i32 0, i32 12
  %120 = load ptr, ptr %119, align 8
  call void @except_throw(i64 noundef 1, i64 noundef 9, ptr noundef %120) #18
  unreachable

121:                                              ; preds = %112
  %122 = load i32, ptr %23, align 4
  %123 = load ptr, ptr %24, align 8
  %124 = getelementptr inbounds nuw %struct._fragment_head, ptr %123, i32 0, i32 4
  %125 = load i32, ptr %124, align 8
  %126 = icmp ugt i32 %122, %125
  br i1 %126, label %127, label %128

127:                                              ; preds = %121
  call void @except_throw(i64 noundef 1, i64 noundef 9, ptr noundef @.str.29) #18
  unreachable

128:                                              ; preds = %121
  %129 = load i32, ptr %19, align 4
  %130 = load i32, ptr %20, align 4
  %131 = add i32 %129, %130
  %132 = load ptr, ptr %24, align 8
  %133 = getelementptr inbounds nuw %struct._fragment_head, ptr %132, i32 0, i32 7
  %134 = load i32, ptr %133, align 4
  %135 = icmp ugt i32 %131, %134
  br i1 %135, label %136, label %144

136:                                              ; preds = %128
  %137 = load i32, ptr %19, align 4
  %138 = load ptr, ptr %24, align 8
  %139 = getelementptr inbounds nuw %struct._fragment_head, ptr %138, i32 0, i32 7
  %140 = load i32, ptr %139, align 4
  %141 = icmp uge i32 %137, %140
  br i1 %141, label %142, label %143

142:                                              ; preds = %136
  call void @except_throw(i64 noundef 1, i64 noundef 9, ptr noundef @.str.30) #18
  unreachable

143:                                              ; preds = %136
  call void @except_throw(i64 noundef 1, i64 noundef 9, ptr noundef @.str.29) #18
  unreachable

144:                                              ; preds = %128
  %145 = load ptr, ptr %24, align 8
  store ptr %145, ptr %12, align 8
  store i32 1, ptr %27, align 4
  br label %172

146:                                              ; preds = %106, %103
  store ptr null, ptr %12, align 8
  store i32 1, ptr %27, align 4
  br label %172

147:                                              ; preds = %102
  %148 = load ptr, ptr %24, align 8
  %149 = icmp eq ptr %148, null
  br i1 %149, label %150, label %158

150:                                              ; preds = %147
  %151 = call ptr @new_head(i32 noundef 0)
  store ptr %151, ptr %24, align 8
  %152 = load ptr, ptr %13, align 8
  %153 = load ptr, ptr %24, align 8
  %154 = load ptr, ptr %16, align 8
  %155 = load i32, ptr %17, align 4
  %156 = load ptr, ptr %18, align 8
  %157 = call ptr @insert_fd_head(ptr noundef %152, ptr noundef %153, ptr noundef %154, i32 noundef %155, ptr noundef %156)
  br label %158

158:                                              ; preds = %150, %147
  %159 = load ptr, ptr %24, align 8
  %160 = load ptr, ptr %14, align 8
  %161 = load i32, ptr %15, align 4
  %162 = load ptr, ptr %16, align 8
  %163 = load i32, ptr %19, align 4
  %164 = load i32, ptr %20, align 4
  %165 = load i8, ptr %21, align 1, !range !13, !noundef !14
  %166 = trunc i8 %165 to i1
  %167 = load i32, ptr %23, align 4
  %168 = call zeroext i1 @fragment_add_work(ptr noundef %159, ptr noundef %160, i32 noundef %161, ptr noundef %162, i32 noundef %163, i32 noundef %164, i1 noundef zeroext %166, i32 noundef %167, i1 noundef zeroext false)
  br i1 %168, label %169, label %171

169:                                              ; preds = %158
  %170 = load ptr, ptr %24, align 8
  store ptr %170, ptr %12, align 8
  store i32 1, ptr %27, align 4
  br label %172

171:                                              ; preds = %158
  store ptr null, ptr %12, align 8
  store i32 1, ptr %27, align 4
  br label %172

172:                                              ; preds = %171, %169, %146, %144, %99
  call void @llvm.lifetime.end.p0(i64 1, ptr %26) #16
  call void @llvm.lifetime.end.p0(i64 8, ptr %25) #16
  call void @llvm.lifetime.end.p0(i64 8, ptr %24) #16
  %173 = load ptr, ptr %12, align 8
  ret ptr %173
}