; Function Attrs: null_pointer_is_valid sspstrong uwtable
define internal fastcc ptr @fragment_add_common(ptr noundef readonly captures(none) %0, ptr noundef %1, i32 noundef %2, ptr noundef %3, i32 noundef %4, ptr noundef %5, i32 noundef %6, i32 noundef %7, i1 noundef zeroext %8, i1 noundef zeroext %9, i32 noundef %10) unnamed_addr #2 {
  %12 = alloca ptr, align 8
  %13 = tail call zeroext i1 @tvb_bytes_exist(ptr noundef %1, i32 noundef %2, i32 noundef %7)
  br i1 %13, label %15, label %14

14:                                               ; preds = %11
  tail call void (ptr, ...) @proto_report_dissector_bug(ptr noundef nonnull @.str, ptr noundef nonnull @.str.1, i32 noundef 1542, ptr noundef nonnull @.str.27) #17
  unreachable

15:                                               ; preds = %11
  call void @llvm.lifetime.start.p0(i64 8, ptr nonnull %12) #18
  %16 = getelementptr inbounds nuw i8, ptr %0, i64 16
  %17 = load ptr, ptr %16, align 8
  %18 = tail call ptr %17(ptr noundef %3, i32 noundef %4, ptr noundef %5)
  %19 = load ptr, ptr %0, align 8
  %20 = call i32 @g_hash_table_lookup_extended(ptr noundef %19, ptr noundef %18, ptr noundef null, ptr noundef nonnull %12)
  %.not.i = icmp eq i32 %20, 0
  br i1 %.not.i, label %21, label %lookup_fd_head.exit

21:                                               ; preds = %15
  store ptr null, ptr %12, align 8
  br label %lookup_fd_head.exit

lookup_fd_head.exit:                              ; preds = %15, %21
  %22 = getelementptr inbounds nuw i8, ptr %0, i64 32
  %23 = load ptr, ptr %22, align 8
  call void %23(ptr noundef %18)
  %24 = load ptr, ptr %12, align 8
  call void @llvm.lifetime.end.p0(i64 8, ptr nonnull %12) #18
  %25 = getelementptr inbounds nuw i8, ptr %3, i64 80
  %26 = load ptr, ptr %25, align 8
  %27 = getelementptr inbounds nuw i8, ptr %26, i64 57
  %28 = load i16, ptr %27, align 1
  %29 = and i16 %28, 8
  %.not = icmp eq i16 %29, 0
  br i1 %.not, label %30, label %48

30:                                               ; preds = %lookup_fd_head.exit
  %31 = icmp ne ptr %24, null
  %or.cond = select i1 %9, i1 %31, i1 false
  br i1 %or.cond, label %32, label %.critedge

32:                                               ; preds = %30
  %33 = getelementptr inbounds nuw i8, ptr %24, i64 24
  %34 = load i32, ptr %33, align 8
  %.not56 = icmp ugt i32 %10, %34
  br i1 %.not56, label %.critedge.thread, label %.preheader

.preheader:                                       ; preds = %32
  %.04963 = load ptr, ptr %24, align 8
  %.not57.not64 = icmp eq ptr %.04963, null
  br i1 %.not57.not64, label %.critedge.thread, label %.lr.ph

.lr.ph:                                           ; preds = %.preheader, %42
  %.04965 = phi ptr [ %.049, %42 ], [ %.04963, %.preheader ]
  %35 = getelementptr inbounds nuw i8, ptr %.04965, i64 8
  %36 = load i32, ptr %35, align 8
  %37 = icmp eq i32 %10, %36
  br i1 %37, label %38, label %42

38:                                               ; preds = %.lr.ph
  %39 = getelementptr inbounds nuw i8, ptr %.04965, i64 12
  %40 = load i32, ptr %39, align 4
  %41 = icmp eq i32 %6, %40
  br i1 %41, label %43, label %42

42:                                               ; preds = %.lr.ph, %38
  %.049 = load ptr, ptr %.04965, align 8
  %.not57.not = icmp eq ptr %.049, null
  br i1 %.not57.not, label %.critedge, label %.lr.ph, !llvm.loop !15

43:                                               ; preds = %38
  %44 = getelementptr inbounds nuw i8, ptr %24, i64 48
  %45 = load i32, ptr %44, align 8
  %46 = and i32 %45, 1
  %.not58 = icmp eq i32 %46, 0
  br i1 %.not58, label %79, label %47

47:                                               ; preds = %43
  call void @except_throw(i64 noundef 1, i64 noundef 9, ptr noundef nonnull @.str.28) #17
  unreachable

48:                                               ; preds = %lookup_fd_head.exit
  %.not59 = icmp eq ptr %24, null
  br i1 %.not59, label %79, label %49

49:                                               ; preds = %48
  %50 = getelementptr inbounds nuw i8, ptr %24, i64 48
  %51 = load i32, ptr %50, align 8
  %52 = and i32 %51, 1
  %.not60 = icmp eq i32 %52, 0
  br i1 %.not60, label %79, label %53

53:                                               ; preds = %49
  %54 = getelementptr inbounds nuw i8, ptr %24, i64 64
  %55 = load ptr, ptr %54, align 8
  %.not61 = icmp eq ptr %55, null
  br i1 %.not61, label %57, label %56

56:                                               ; preds = %53
  call void @except_throw(i64 noundef 1, i64 noundef 9, ptr noundef nonnull %55) #17
  unreachable

57:                                               ; preds = %53
  %58 = getelementptr inbounds nuw i8, ptr %24, i64 24
  %59 = load i32, ptr %58, align 8
  %60 = icmp ugt i32 %10, %59
  br i1 %60, label %61, label %62

61:                                               ; preds = %57
  call void @except_throw(i64 noundef 1, i64 noundef 9, ptr noundef nonnull @.str.29) #17
  unreachable

62:                                               ; preds = %57
  %63 = add i32 %7, %6
  %64 = getelementptr inbounds nuw i8, ptr %24, i64 36
  %65 = load i32, ptr %64, align 4
  %66 = icmp ugt i32 %63, %65
  br i1 %66, label %67, label %79

67:                                               ; preds = %62
  %.not62 = icmp ult i32 %6, %65
  br i1 %.not62, label %69, label %68

68:                                               ; preds = %67
  call void @except_throw(i64 noundef 1, i64 noundef 9, ptr noundef nonnull @.str.30) #17
  unreachable

69:                                               ; preds = %67
  call void @except_throw(i64 noundef 1, i64 noundef 9, ptr noundef nonnull @.str.29) #17
  unreachable

.critedge:                                        ; preds = %42, %30
  %70 = icmp eq ptr %24, null
  br i1 %70, label %71, label %.critedge.thread

71:                                               ; preds = %.critedge
  %72 = call noalias noundef dereferenceable_or_null(72) ptr @g_slice_alloc(i64 noundef 72) #15
  %73 = getelementptr inbounds nuw i8, ptr %0, i64 24
  call void @llvm.memset.p0.i64(ptr noundef align 1 dereferenceable(72) %72, i8 0, i64 72, i1 false)
  %74 = load ptr, ptr %73, align 8
  %75 = call ptr %74(ptr noundef %3, i32 noundef %4, ptr noundef %5)
  %76 = load ptr, ptr %0, align 8
  %77 = call i32 @g_hash_table_insert(ptr noundef %76, ptr noundef %75, ptr noundef %72)
  br label %.critedge.thread

.critedge.thread:                                 ; preds = %.preheader, %32, %71, %.critedge
  %.050 = phi ptr [ %72, %71 ], [ %24, %.critedge ], [ %24, %32 ], [ %24, %.preheader ]
  %78 = call fastcc zeroext i1 @fragment_add_work(ptr noundef %.050, ptr noundef %1, i32 noundef %2, ptr noundef %3, i32 noundef %6, i32 noundef %7, i1 noundef zeroext %8, i32 noundef %10, i1 noundef zeroext false)
  %.050. = select i1 %78, ptr %.050, ptr null
  br label %79

79:                                               ; preds = %.critedge.thread, %48, %49, %62, %43
  %.051 = phi ptr [ null, %43 ], [ %24, %62 ], [ null, %49 ], [ null, %48 ], [ %.050., %.critedge.thread ]
  ret ptr %.051
}